; Function Attrs: nounwind uwtable
define internal ptr @getpath_basename(ptr readnone captures(none) %0, ptr noundef %1) #0 {
  %3 = alloca ptr, align 8
  call void @llvm.lifetime.start.p0(i64 8, ptr nonnull %3) #13
  %4 = call i32 (ptr, ptr, ...) @PyArg_ParseTuple(ptr noundef %1, ptr noundef nonnull @.str.49, ptr noundef nonnull %3) #13
  %.not = icmp eq i32 %4, 0
  br i1 %.not, label %_Py_NewRef.exit, label %5

5:                                                ; preds = %2
  %6 = load ptr, ptr %3, align 8, !tbaa !31
  %7 = getelementptr i8, ptr %6, i64 16
  %.val = load i64, ptr %7, align 8, !tbaa !34
  %8 = call i64 @PyUnicode_FindChar(ptr noundef %6, i32 noundef 47, i64 noundef 0, i64 noundef %.val, i32 noundef -1) #13
  %9 = icmp slt i64 %8, 0
  %10 = load ptr, ptr %3, align 8, !tbaa !31
  br i1 %9, label %11, label %16

11:                                               ; preds = %5
  %12 = load i32, ptr %10, align 8, !tbaa !16
  %13 = icmp slt i32 %12, 0
  br i1 %13, label %_Py_NewRef.exit, label %14

14:                                               ; preds = %11
  %15 = add nuw i32 %12, 1
  store i32 %15, ptr %10, align 8, !tbaa !16
  br label %_Py_NewRef.exit

16:                                               ; preds = %5
  %17 = add nuw i64 %8, 1
  %18 = call ptr @PyUnicode_Substring(ptr noundef %10, i64 noundef %17, i64 noundef %.val) #13
  br label %_Py_NewRef.exit

_Py_NewRef.exit:                                  ; preds = %14, %11, %16, %2
  %.0 = phi ptr [ null, %2 ], [ %18, %16 ], [ %10, %11 ], [ %10, %14 ]
  call void @llvm.lifetime.end.p0(i64 8, ptr nonnull %3) #13
  ret ptr %.0
}